
output.elf:     file format elf32-littlearm


Disassembly of section .text:

08008000 <_vectors>:
 8008000:	20009a00 	.word	0x20009a00
 8008004:	0800824d 	.word	0x0800824d
 8008008:	08008263 	.word	0x08008263
 800800c:	08008263 	.word	0x08008263
 8008010:	08008263 	.word	0x08008263
 8008014:	08008263 	.word	0x08008263
 8008018:	08008263 	.word	0x08008263
	...
 800802c:	08008261 	.word	0x08008261
 8008030:	08008261 	.word	0x08008261
 8008034:	00000000 	.word	0x00000000
 8008038:	08008261 	.word	0x08008261
 800803c:	08008261 	.word	0x08008261
 8008040:	08008263 	.word	0x08008263
 8008044:	08008263 	.word	0x08008263
 8008048:	08008263 	.word	0x08008263
 800804c:	08008263 	.word	0x08008263
 8008050:	08008263 	.word	0x08008263
 8008054:	08008263 	.word	0x08008263
 8008058:	08008263 	.word	0x08008263
 800805c:	08008263 	.word	0x08008263
 8008060:	08008263 	.word	0x08008263
 8008064:	08008263 	.word	0x08008263
 8008068:	08008263 	.word	0x08008263
 800806c:	08008263 	.word	0x08008263
 8008070:	08008263 	.word	0x08008263
 8008074:	08008263 	.word	0x08008263
 8008078:	08008263 	.word	0x08008263
 800807c:	08008263 	.word	0x08008263
 8008080:	08008263 	.word	0x08008263
 8008084:	08008263 	.word	0x08008263
 8008088:	08008263 	.word	0x08008263
 800808c:	08008261 	.word	0x08008261
 8008090:	08008261 	.word	0x08008261
 8008094:	08008261 	.word	0x08008261
 8008098:	08008261 	.word	0x08008261
 800809c:	08008263 	.word	0x08008263
 80080a0:	08008263 	.word	0x08008263
 80080a4:	08008263 	.word	0x08008263
 80080a8:	08008263 	.word	0x08008263
 80080ac:	08008263 	.word	0x08008263
 80080b0:	08008263 	.word	0x08008263
 80080b4:	08008263 	.word	0x08008263
 80080b8:	08008263 	.word	0x08008263
 80080bc:	08008263 	.word	0x08008263
 80080c0:	08008263 	.word	0x08008263
 80080c4:	08008263 	.word	0x08008263
 80080c8:	08008263 	.word	0x08008263
 80080cc:	08008263 	.word	0x08008263
 80080d0:	08008263 	.word	0x08008263
 80080d4:	08008263 	.word	0x08008263
 80080d8:	08008263 	.word	0x08008263
 80080dc:	08008263 	.word	0x08008263
 80080e0:	08008263 	.word	0x08008263
 80080e4:	08008263 	.word	0x08008263
 80080e8:	08008263 	.word	0x08008263
 80080ec:	08008263 	.word	0x08008263
 80080f0:	08008263 	.word	0x08008263
 80080f4:	08008263 	.word	0x08008263
 80080f8:	08008263 	.word	0x08008263
 80080fc:	08008263 	.word	0x08008263
 8008100:	08008263 	.word	0x08008263
 8008104:	08008263 	.word	0x08008263
 8008108:	08008263 	.word	0x08008263
 800810c:	08008263 	.word	0x08008263
 8008110:	08008263 	.word	0x08008263
 8008114:	08008263 	.word	0x08008263
 8008118:	08008263 	.word	0x08008263
 800811c:	08008263 	.word	0x08008263
 8008120:	08008263 	.word	0x08008263
 8008124:	08008263 	.word	0x08008263
 8008128:	08008263 	.word	0x08008263
 800812c:	08008263 	.word	0x08008263

08008130 <GetRegister>:
 8008130:	4b02      	ldr	r3, [pc, #8]	; (800813c <GetRegister+0xc>)
 8008132:	f853 0020 	ldr.w	r0, [r3, r0, lsl #2]
 8008136:	ea40 0081 	orr.w	r0, r0, r1, lsl #2
 800813a:	4770      	bx	lr
 800813c:	08008264 	.word	0x08008264

08008140 <SetState>:
 8008140:	2907      	cmp	r1, #7
 8008142:	b510      	push	{r4, lr}
 8008144:	4b0a      	ldr	r3, [pc, #40]	; (8008170 <SetState+0x30>)
 8008146:	dc02      	bgt.n	800814e <SetState+0xe>
 8008148:	f853 3020 	ldr.w	r3, [r3, r0, lsl #2]
 800814c:	e004      	b.n	8008158 <SetState+0x18>
 800814e:	f853 3020 	ldr.w	r3, [r3, r0, lsl #2]
 8008152:	f001 0107 	and.w	r1, r1, #7
 8008156:	3304      	adds	r3, #4
 8008158:	0089      	lsls	r1, r1, #2
 800815a:	200f      	movs	r0, #15
 800815c:	4088      	lsls	r0, r1
 800815e:	fa12 f101 	lsls.w	r1, r2, r1
 8008162:	681c      	ldr	r4, [r3, #0]
 8008164:	ea24 0000 	bic.w	r0, r4, r0
 8008168:	ea40 0101 	orr.w	r1, r0, r1
 800816c:	6019      	str	r1, [r3, #0]
 800816e:	bd10      	pop	{r4, pc}
 8008170:	08008264 	.word	0x08008264

08008174 <SetPin>:
 8008174:	4b06      	ldr	r3, [pc, #24]	; (8008190 <SetPin+0x1c>)
 8008176:	f853 3020 	ldr.w	r3, [r3, r0, lsl #2]
 800817a:	2001      	movs	r0, #1
 800817c:	b11a      	cbz	r2, 8008186 <SetPin+0x12>
 800817e:	fa10 f101 	lsls.w	r1, r0, r1
 8008182:	6119      	str	r1, [r3, #16]
 8008184:	4770      	bx	lr
 8008186:	fa10 f101 	lsls.w	r1, r0, r1
 800818a:	6159      	str	r1, [r3, #20]
 800818c:	4770      	bx	lr
 800818e:	bf00      	nop
 8008190:	08008264 	.word	0x08008264

08008194 <GetPin>:
 8008194:	2201      	movs	r2, #1
 8008196:	408a      	lsls	r2, r1
 8008198:	4b04      	ldr	r3, [pc, #16]	; (80081ac <GetPin+0x18>)
 800819a:	f853 3020 	ldr.w	r3, [r3, r0, lsl #2]
 800819e:	689b      	ldr	r3, [r3, #8]
 80081a0:	421a      	tst	r2, r3
 80081a2:	bf0c      	ite	eq
 80081a4:	2000      	moveq	r0, #0
 80081a6:	2001      	movne	r0, #1
 80081a8:	4770      	bx	lr
 80081aa:	bf00      	nop
 80081ac:	08008264 	.word	0x08008264

080081b0 <pinWrite>:
 80081b0:	b570      	push	{r4, r5, r6, lr}
 80081b2:	4614      	mov	r4, r2
 80081b4:	2202      	movs	r2, #2
 80081b6:	4606      	mov	r6, r0
 80081b8:	460d      	mov	r5, r1
 80081ba:	f7ff ffc1 	bl	8008140 <SetState>
 80081be:	4630      	mov	r0, r6
 80081c0:	4629      	mov	r1, r5
 80081c2:	b2e2      	uxtb	r2, r4
 80081c4:	e8bd 4070 	ldmia.w	sp!, {r4, r5, r6, lr}
 80081c8:	e7d4      	b.n	8008174 <SetPin>

080081ca <main>:
 80081ca:	b507      	push	{r0, r1, r2, lr}
 80081cc:	2001      	movs	r0, #1
 80081ce:	210a      	movs	r1, #10
 80081d0:	4602      	mov	r2, r0
 80081d2:	f7ff ffed 	bl	80081b0 <pinWrite>
 80081d6:	2300      	movs	r3, #0
 80081d8:	e001      	b.n	80081de <main+0x14>
 80081da:	9b01      	ldr	r3, [sp, #4]
 80081dc:	3301      	adds	r3, #1
 80081de:	9301      	str	r3, [sp, #4]
 80081e0:	9a01      	ldr	r2, [sp, #4]
 80081e2:	4b09      	ldr	r3, [pc, #36]	; (8008208 <main+0x3e>)
 80081e4:	429a      	cmp	r2, r3
 80081e6:	d9f8      	bls.n	80081da <main+0x10>
 80081e8:	2001      	movs	r0, #1
 80081ea:	210a      	movs	r1, #10
 80081ec:	2200      	movs	r2, #0
 80081ee:	f7ff ffdf 	bl	80081b0 <pinWrite>
 80081f2:	2300      	movs	r3, #0
 80081f4:	e001      	b.n	80081fa <main+0x30>
 80081f6:	9b01      	ldr	r3, [sp, #4]
 80081f8:	3301      	adds	r3, #1
 80081fa:	9301      	str	r3, [sp, #4]
 80081fc:	9a01      	ldr	r2, [sp, #4]
 80081fe:	4b02      	ldr	r3, [pc, #8]	; (8008208 <main+0x3e>)
 8008200:	429a      	cmp	r2, r3
 8008202:	d8e3      	bhi.n	80081cc <main+0x2>
 8008204:	e7f7      	b.n	80081f6 <main+0x2c>
 8008206:	bf00      	nop
 8008208:	000f423f 	.word	0x000f423f

0800820c <__Init_Data>:
 800820c:	4a0a      	ldr	r2, [pc, #40]	; (8008238 <__Init_Data+0x2c>)
 800820e:	4b0b      	ldr	r3, [pc, #44]	; (800823c <__Init_Data+0x30>)
 8008210:	429a      	cmp	r2, r3
 8008212:	d105      	bne.n	8008220 <__Init_Data+0x14>
 8008214:	4b0a      	ldr	r3, [pc, #40]	; (8008240 <__Init_Data+0x34>)
 8008216:	e00a      	b.n	800822e <__Init_Data+0x22>
 8008218:	f852 1b04 	ldr.w	r1, [r2], #4
 800821c:	f843 1b04 	str.w	r1, [r3], #4
 8008220:	4908      	ldr	r1, [pc, #32]	; (8008244 <__Init_Data+0x38>)
 8008222:	428b      	cmp	r3, r1
 8008224:	d3f8      	bcc.n	8008218 <__Init_Data+0xc>
 8008226:	e7f5      	b.n	8008214 <__Init_Data+0x8>
 8008228:	2200      	movs	r2, #0
 800822a:	f843 2b04 	str.w	r2, [r3], #4
 800822e:	4a06      	ldr	r2, [pc, #24]	; (8008248 <__Init_Data+0x3c>)
 8008230:	4293      	cmp	r3, r2
 8008232:	d3f9      	bcc.n	8008228 <__Init_Data+0x1c>
 8008234:	4770      	bx	lr
 8008236:	bf00      	nop
 8008238:	08008280 	.word	0x08008280
 800823c:	20000000 	.word	0x20000000
 8008240:	20000000 	.word	0x20000000
 8008244:	20000000 	.word	0x20000000
 8008248:	20000000 	.word	0x20000000

0800824c <Reset_Handler>:
 800824c:	4668      	mov	r0, sp
 800824e:	f020 0107 	bic.w	r1, r0, #7
 8008252:	468d      	mov	sp, r1
 8008254:	b501      	push	{r0, lr}
 8008256:	f7ff ffd9 	bl	800820c <__Init_Data>
 800825a:	f7ff ffb6 	bl	80081ca <main>
 800825e:	e7fe      	b.n	800825e <Reset_Handler+0x12>

08008260 <Dummy_Handler>:
 8008260:	4770      	bx	lr

08008262 <Default_Handler>:
 8008262:	e7fe      	b.n	8008262 <Default_Handler>

08008264 <arrGpioBase>:
 8008264:	0800 4001 0c00 4001 1000 4001 1400 4001     ...@...@...@...@
 8008274:	1800 4001 1c00 4001 2000 4001               ...@...@. .@
